; ModuleID = '11/858.c'
source_filename = "11/858.c"
target datalayout = "e-m:e-p270:32:32-p271:32:32-p272:64:64-i64:64-f80:128-n8:16:32:64-S128"
target triple = "x86_64-pc-linux-gnu"

@.str = private unnamed_addr constant [7 x i8] c"%d%d%d\00", align 1
@.str.1 = private unnamed_addr constant [4 x i8] c"%d\0A\00", align 1

; Function Attrs: noinline nounwind uwtable
define dso_local void @main() #0 {
  %1 = alloca i32, align 4
  %2 = alloca i32, align 4
  %3 = alloca i32, align 4
  %4 = alloca i32, align 4
  %5 = call i32 (i8*, ...) @__isoc99_scanf(i8* getelementptr inbounds ([7 x i8], [7 x i8]* @.str, i64 0, i64 0), i32* %1, i32* %2, i32* %3)
  %6 = load i32, i32* %1, align 4
  %7 = srem i32 %6, 4
  %8 = icmp ne i32 %7, 0
  br i1 %8, label %21, label %9

9:                                                ; preds = %0
  %10 = load i32, i32* %1, align 4
  %11 = srem i32 %10, 4
  %12 = icmp eq i32 %11, 0
  br i1 %12, label %13, label %93

13:                                               ; preds = %9
  %14 = load i32, i32* %1, align 4
  %15 = srem i32 %14, 100
  %16 = icmp eq i32 %15, 0
  br i1 %16, label %17, label %93

17:                                               ; preds = %13
  %18 = load i32, i32* %1, align 4
  %19 = srem i32 %18, 400
  %20 = icmp ne i32 %19, 0
  br i1 %20, label %21, label %93

21:                                               ; preds = %17, %0
  %22 = load i32, i32* %2, align 4
  %23 = icmp eq i32 %22, 1
  br i1 %23, label %24, label %26

24:                                               ; preds = %21
  %25 = load i32, i32* %3, align 4
  store i32 %25, i32* %4, align 4
  br label %26

26:                                               ; preds = %24, %21
  %27 = load i32, i32* %2, align 4
  %28 = icmp eq i32 %27, 2
  br i1 %28, label %29, label %32

29:                                               ; preds = %26
  %30 = load i32, i32* %3, align 4
  %31 = add nsw i32 31, %30
  store i32 %31, i32* %4, align 4
  br label %32

32:                                               ; preds = %29, %26
  %33 = load i32, i32* %2, align 4
  %34 = icmp eq i32 %33, 3
  br i1 %34, label %35, label %38

35:                                               ; preds = %32
  %36 = load i32, i32* %3, align 4
  %37 = add nsw i32 59, %36
  store i32 %37, i32* %4, align 4
  br label %38

38:                                               ; preds = %35, %32
  %39 = load i32, i32* %2, align 4
  %40 = icmp eq i32 %39, 4
  br i1 %40, label %41, label %44

41:                                               ; preds = %38
  %42 = load i32, i32* %3, align 4
  %43 = add nsw i32 90, %42
  store i32 %43, i32* %4, align 4
  br label %44

44:                                               ; preds = %41, %38
  %45 = load i32, i32* %2, align 4
  %46 = icmp eq i32 %45, 5
  br i1 %46, label %47, label %50

47:                                               ; preds = %44
  %48 = load i32, i32* %3, align 4
  %49 = add nsw i32 120, %48
  store i32 %49, i32* %4, align 4
  br label %50

50:                                               ; preds = %47, %44
  %51 = load i32, i32* %2, align 4
  %52 = icmp eq i32 %51, 6
  br i1 %52, label %53, label %56

53:                                               ; preds = %50
  %54 = load i32, i32* %3, align 4
  %55 = add nsw i32 151, %54
  store i32 %55, i32* %4, align 4
  br label %56

56:                                               ; preds = %53, %50
  %57 = load i32, i32* %2, align 4
  %58 = icmp eq i32 %57, 7
  br i1 %58, label %59, label %62

59:                                               ; preds = %56
  %60 = load i32, i32* %3, align 4
  %61 = add nsw i32 181, %60
  store i32 %61, i32* %4, align 4
  br label %62

62:                                               ; preds = %59, %56
  %63 = load i32, i32* %2, align 4
  %64 = icmp eq i32 %63, 8
  br i1 %64, label %65, label %68

65:                                               ; preds = %62
  %66 = load i32, i32* %3, align 4
  %67 = add nsw i32 212, %66
  store i32 %67, i32* %4, align 4
  br label %68

68:                                               ; preds = %65, %62
  %69 = load i32, i32* %2, align 4
  %70 = icmp eq i32 %69, 9
  br i1 %70, label %71, label %74

71:                                               ; preds = %68
  %72 = load i32, i32* %3, align 4
  %73 = add nsw i32 243, %72
  store i32 %73, i32* %4, align 4
  br label %74

74:                                               ; preds = %71, %68
  %75 = load i32, i32* %2, align 4
  %76 = icmp eq i32 %75, 10
  br i1 %76, label %77, label %80

77:                                               ; preds = %74
  %78 = load i32, i32* %3, align 4
  %79 = add nsw i32 273, %78
  store i32 %79, i32* %4, align 4
  br label %80

80:                                               ; preds = %77, %74
  %81 = load i32, i32* %2, align 4
  %82 = icmp eq i32 %81, 11
  br i1 %82, label %83, label %86

83:                                               ; preds = %80
  %84 = load i32, i32* %3, align 4
  %85 = add nsw i32 304, %84
  store i32 %85, i32* %4, align 4
  br label %86

86:                                               ; preds = %83, %80
  %87 = load i32, i32* %2, align 4
  %88 = icmp eq i32 %87, 12
  br i1 %88, label %89, label %92

89:                                               ; preds = %86
  %90 = load i32, i32* %3, align 4
  %91 = add nsw i32 334, %90
  store i32 %91, i32* %4, align 4
  br label %92

92:                                               ; preds = %89, %86
  br label %165

93:                                               ; preds = %17, %13, %9
  %94 = load i32, i32* %2, align 4
  %95 = icmp eq i32 %94, 1
  br i1 %95, label %96, label %98

96:                                               ; preds = %93
  %97 = load i32, i32* %3, align 4
  store i32 %97, i32* %4, align 4
  br label %98

98:                                               ; preds = %96, %93
  %99 = load i32, i32* %2, align 4
  %100 = icmp eq i32 %99, 2
  br i1 %100, label %101, label %104

101:                                              ; preds = %98
  %102 = load i32, i32* %3, align 4
  %103 = add nsw i32 31, %102
  store i32 %103, i32* %4, align 4
  br label %104

104:                                              ; preds = %101, %98
  %105 = load i32, i32* %2, align 4
  %106 = icmp eq i32 %105, 3
  br i1 %106, label %107, label %110

107:                                              ; preds = %104
  %108 = load i32, i32* %3, align 4
  %109 = add nsw i32 60, %108
  store i32 %109, i32* %4, align 4
  br label %110

110:                                              ; preds = %107, %104
  %111 = load i32, i32* %2, align 4
  %112 = icmp eq i32 %111, 4
  br i1 %112, label %113, label %116

113:                                              ; preds = %110
  %114 = load i32, i32* %3, align 4
  %115 = add nsw i32 91, %114
  store i32 %115, i32* %4, align 4
  br label %116

116:                                              ; preds = %113, %110
  %117 = load i32, i32* %2, align 4
  %118 = icmp eq i32 %117, 5
  br i1 %118, label %119, label %122

119:                                              ; preds = %116
  %120 = load i32, i32* %3, align 4
  %121 = add nsw i32 121, %120
  store i32 %121, i32* %4, align 4
  br label %122

122:                                              ; preds = %119, %116
  %123 = load i32, i32* %2, align 4
  %124 = icmp eq i32 %123, 6
  br i1 %124, label %125, label %128

125:                                              ; preds = %122
  %126 = load i32, i32* %3, align 4
  %127 = add nsw i32 152, %126
  store i32 %127, i32* %4, align 4
  br label %128

128:                                              ; preds = %125, %122
  %129 = load i32, i32* %2, align 4
  %130 = icmp eq i32 %129, 7
  br i1 %130, label %131, label %134

131:                                              ; preds = %128
  %132 = load i32, i32* %3, align 4
  %133 = add nsw i32 182, %132
  store i32 %133, i32* %4, align 4
  br label %134

134:                                              ; preds = %131, %128
  %135 = load i32, i32* %2, align 4
  %136 = icmp eq i32 %135, 8
  br i1 %136, label %137, label %140

137:                                              ; preds = %134
  %138 = load i32, i32* %3, align 4
  %139 = add nsw i32 213, %138
  store i32 %139, i32* %4, align 4
  br label %140

140:                                              ; preds = %137, %134
  %141 = load i32, i32* %2, align 4
  %142 = icmp eq i32 %141, 9
  br i1 %142, label %143, label %146

143:                                              ; preds = %140
  %144 = load i32, i32* %3, align 4
  %145 = add nsw i32 244, %144
  store i32 %145, i32* %4, align 4
  br label %146

146:                                              ; preds = %143, %140
  %147 = load i32, i32* %2, align 4
  %148 = icmp eq i32 %147, 10
  br i1 %148, label %149, label %152

149:                                              ; preds = %146
  %150 = load i32, i32* %3, align 4
  %151 = add nsw i32 274, %150
  store i32 %151, i32* %4, align 4
  br label %152

152:                                              ; preds = %149, %146
  %153 = load i32, i32* %2, align 4
  %154 = icmp eq i32 %153, 11
  br i1 %154, label %155, label %158

155:                                              ; preds = %152
  %156 = load i32, i32* %3, align 4
  %157 = add nsw i32 305, %156
  store i32 %157, i32* %4, align 4
  br label %158

158:                                              ; preds = %155, %152
  %159 = load i32, i32* %2, align 4
  %160 = icmp eq i32 %159, 12
  br i1 %160, label %161, label %164

161:                                              ; preds = %158
  %162 = load i32, i32* %3, align 4
  %163 = add nsw i32 335, %162
  store i32 %163, i32* %4, align 4
  br label %164

164:                                              ; preds = %161, %158
  br label %165

165:                                              ; preds = %164, %92
  %166 = load i32, i32* %4, align 4
  %167 = call i32 (i8*, ...) @printf(i8* getelementptr inbounds ([4 x i8], [4 x i8]* @.str.1, i64 0, i64 0), i32 %166)
  ret void
}

declare dso_local i32 @__isoc99_scanf(i8*, ...) #1

declare dso_local i32 @printf(i8*, ...) #1


!llvm.module.flags = !{!0}
!llvm.ident = !{!1}

!0 = !{i32 1, !"wchar_size", i32 4}
!1 = !{!"clang version 10.0.0-4ubuntu1 "}
